; Function Attrs: nounwind uwtable
define dso_local void @publishCommand(ptr noundef %0) local_unnamed_addr #2 {
  %2 = load i32, ptr getelementptr inbounds nuw (i8, ptr @server, i64 204), align 4, !tbaa !101
  %.not = icmp eq i32 %2, 0
  br i1 %.not, label %4, label %3

3:                                                ; preds = %1
  tail call void @sentinelPublishCommand(ptr noundef %0) #9
  br label %15

4:                                                ; preds = %1
  %5 = getelementptr inbounds nuw i8, ptr %0, i64 96
  %6 = load ptr, ptr %5, align 8, !tbaa !96
  %7 = getelementptr inbounds nuw i8, ptr %6, i64 8
  %8 = load ptr, ptr %7, align 8, !tbaa !33
  %9 = getelementptr inbounds nuw i8, ptr %6, i64 16
  %10 = load ptr, ptr %9, align 8, !tbaa !33
  %11 = tail call i32 @pubsubPublishMessageInternal(ptr noundef %8, ptr noundef %10, ptr noundef nonnull byval(%struct.pubsubtype) align 8 @pubSubType)
  %12 = load i32, ptr getelementptr inbounds nuw (i8, ptr @server, i64 7888), align 8, !tbaa !68
  %.not.i = icmp eq i32 %12, 0
  br i1 %.not.i, label %pubsubPublishMessageAndPropagateToCluster.exit.thread, label %pubsubPublishMessageAndPropagateToCluster.exit

pubsubPublishMessageAndPropagateToCluster.exit:   ; preds = %4
  tail call void @clusterPropagatePublish(ptr noundef %8, ptr noundef %10, i32 noundef 0) #9
  %.pr = load i32, ptr getelementptr inbounds nuw (i8, ptr @server, i64 7888), align 8, !tbaa !68
  %.not5 = icmp eq i32 %.pr, 0
  br i1 %.not5, label %pubsubPublishMessageAndPropagateToCluster.exit.thread, label %13

pubsubPublishMessageAndPropagateToCluster.exit.thread: ; preds = %4, %pubsubPublishMessageAndPropagateToCluster.exit
  tail call void @forceCommandPropagation(ptr noundef nonnull %0, i32 noundef 2) #9
  br label %13

13:                                               ; preds = %pubsubPublishMessageAndPropagateToCluster.exit.thread, %pubsubPublishMessageAndPropagateToCluster.exit
  %14 = sext i32 %11 to i64
  tail call void @addReplyLongLong(ptr noundef nonnull %0, i64 noundef %14) #9
  br label %15

15:                                               ; preds = %13, %3
  ret void
}